target datalayout = "e-m:e-p270:32:32-p271:32:32-p272:64:64-i64:64-i128:128-f80:128-n8:16:32:64-S128"
target triple = "x86_64-unknown-linux-gnu"

%struct.QEMUIOVector = type { ptr, i32, %union.anon }
%union.anon = type { %struct.anon }
%struct.anon = type { i32, %struct.iovec }
%struct.iovec = type { ptr, i64 }
%struct.IDEState = type { ptr, i8, i32, i32, i32, i32, i32, i32, i32, i64, i32, i32, [512 x i8], i32, [21 x i8], [41 x i8], i64, i8, i8, i32, i8, i8, i8, i8, i8, i8, i8, i8, i8, i8, i8, i8, i8, ptr, [9 x i8], %struct.unreported_events, i8, i8, i8, i8, i8, i32, i32, i32, i32, i32, i32, %struct.BlockAcctCookie, ptr, %struct.QEMUIOVector, %struct.anon.1, i64, i32, %struct.QEMUSGList, i32, ptr, ptr, ptr, ptr, i32, i32, i32, i8, ptr, i32, i8, i32, ptr, i32, i32, i8, i8, i32, i8, ptr, i32 }
%struct.unreported_events = type { i8, i8 }
%struct.BlockAcctCookie = type { i64, i64, i32 }
%struct.anon.1 = type { ptr }
%struct.QEMUSGList = type { ptr, i32, i32, i64, ptr, ptr }

@transfer_end_table = internal global [6 x ptr] [ptr @ide_sector_read, ptr @ide_sector_write, ptr @ide_transfer_stop, ptr @ide_atapi_cmd_reply_end, ptr @ide_atapi_cmd, ptr @ide_dummy_transfer_stop], align 16
@stderr = external global ptr, align 8
@.str.104 = private unnamed_addr constant [44 x i8] c"%s: invalid end_transfer_func for DRQ_STAT\0A\00", align 1
@__func__.ide_drive_pio_pre_save = private unnamed_addr constant [23 x i8] c"ide_drive_pio_pre_save\00", align 1

; Function Attrs: nounwind sspstrong uwtable
define internal i32 @transfer_end_table_idx(ptr noundef %fn) #0 {
entry:
  %retval = alloca i32, align 4
  %fn.addr = alloca ptr, align 8
  %i = alloca i32, align 4
  store ptr %fn, ptr %fn.addr, align 8
  store i32 0, ptr %i, align 4
  br label %for.cond

for.cond:                                         ; preds = %for.inc, %entry
  %0 = load i32, ptr %i, align 4
  %conv = sext i32 %0 to i64
  %cmp = icmp ult i64 %conv, 6
  br i1 %cmp, label %for.body, label %for.end

for.body:                                         ; preds = %for.cond
  %1 = load i32, ptr %i, align 4
  %idxprom = sext i32 %1 to i64
  %arrayidx = getelementptr [6 x ptr], ptr @transfer_end_table, i64 0, i64 %idxprom
  %2 = load ptr, ptr %arrayidx, align 8
  %3 = load ptr, ptr %fn.addr, align 8
  %cmp2 = icmp eq ptr %2, %3
  br i1 %cmp2, label %if.then, label %if.end

if.then:                                          ; preds = %for.body
  %4 = load i32, ptr %i, align 4
  store i32 %4, ptr %retval, align 4
  br label %return

if.end:                                           ; preds = %for.body
  br label %for.inc

for.inc:                                          ; preds = %if.end
  %5 = load i32, ptr %i, align 4
  %inc = add i32 %5, 1
  store i32 %inc, ptr %i, align 4
  br label %for.cond, !llvm.loop !24

for.end:                                          ; preds = %for.cond
  store i32 -1, ptr %retval, align 4
  br label %return

return:                                           ; preds = %for.end, %if.then
  %6 = load i32, ptr %retval, align 4
  ret i32 %6
}

; Function Attrs: nounwind sspstrong uwtable
define internal i32 @ide_drive_pio_pre_save(ptr noundef %opaque) #0 {
entry:
  %opaque.addr = alloca ptr, align 8
  %s = alloca ptr, align 8
  %idx = alloca i32, align 4
  store ptr %opaque, ptr %opaque.addr, align 8
  %0 = load ptr, ptr %opaque.addr, align 8
  store ptr %0, ptr %s, align 8
  %1 = load ptr, ptr %s, align 8
  %data_ptr = getelementptr inbounds %struct.IDEState, ptr %1, i32 0, i32 56
  %2 = load ptr, ptr %data_ptr, align 8
  %3 = load ptr, ptr %s, align 8
  %io_buffer = getelementptr inbounds %struct.IDEState, ptr %3, i32 0, i32 58
  %4 = load ptr, ptr %io_buffer, align 8
  %sub.ptr.lhs.cast = ptrtoint ptr %2 to i64
  %sub.ptr.rhs.cast = ptrtoint ptr %4 to i64
  %sub.ptr.sub = sub i64 %sub.ptr.lhs.cast, %sub.ptr.rhs.cast
  %conv = trunc i64 %sub.ptr.sub to i32
  %5 = load ptr, ptr %s, align 8
  %cur_io_buffer_offset = getelementptr inbounds %struct.IDEState, ptr %5, i32 0, i32 60
  store i32 %conv, ptr %cur_io_buffer_offset, align 4
  %6 = load ptr, ptr %s, align 8
  %data_end = getelementptr inbounds %struct.IDEState, ptr %6, i32 0, i32 57
  %7 = load ptr, ptr %data_end, align 8
  %8 = load ptr, ptr %s, align 8
  %data_ptr1 = getelementptr inbounds %struct.IDEState, ptr %8, i32 0, i32 56
  %9 = load ptr, ptr %data_ptr1, align 8
  %sub.ptr.lhs.cast2 = ptrtoint ptr %7 to i64
  %sub.ptr.rhs.cast3 = ptrtoint ptr %9 to i64
  %sub.ptr.sub4 = sub i64 %sub.ptr.lhs.cast2, %sub.ptr.rhs.cast3
  %conv5 = trunc i64 %sub.ptr.sub4 to i32
  %10 = load ptr, ptr %s, align 8
  %cur_io_buffer_len = getelementptr inbounds %struct.IDEState, ptr %10, i32 0, i32 61
  store i32 %conv5, ptr %cur_io_buffer_len, align 8
  %11 = load ptr, ptr %s, align 8
  %end_transfer_func = getelementptr inbounds %struct.IDEState, ptr %11, i32 0, i32 55
  %12 = load ptr, ptr %end_transfer_func, align 8
  %call = call i32 @transfer_end_table_idx(ptr noundef %12)
  store i32 %call, ptr %idx, align 4
  %13 = load i32, ptr %idx, align 4
  %cmp = icmp eq i32 %13, -1
  br i1 %cmp, label %if.then, label %if.else

if.then:                                          ; preds = %entry
  %14 = load ptr, ptr @stderr, align 8
  %call7 = call i32 (ptr, ptr, ...) @fprintf(ptr noundef %14, ptr noundef @.str.104, ptr noundef @__func__.ide_drive_pio_pre_save)
  %15 = load ptr, ptr %s, align 8
  %end_transfer_fn_idx = getelementptr inbounds %struct.IDEState, ptr %15, i32 0, i32 62
  store i8 2, ptr %end_transfer_fn_idx, align 4
  br label %if.end

if.else:                                          ; preds = %entry
  %16 = load i32, ptr %idx, align 4
  %conv8 = trunc i32 %16 to i8
  %17 = load ptr, ptr %s, align 8
  %end_transfer_fn_idx9 = getelementptr inbounds %struct.IDEState, ptr %17, i32 0, i32 62
  store i8 %conv8, ptr %end_transfer_fn_idx9, align 4
  br label %if.end

if.end:                                           ; preds = %if.else, %if.then
  ret i32 0
}