; Function Attrs: nofree nounwind sspstrong uwtable
define internal noundef i32 @ide_drive_pio_pre_save(ptr noundef captures(none) initializes((900, 908)) %opaque) #13 {
entry:
  %data_ptr = getelementptr inbounds nuw i8, ptr %opaque, i64 872
  %0 = load ptr, ptr %data_ptr, align 8
  %io_buffer = getelementptr inbounds nuw i8, ptr %opaque, i64 888
  %1 = load ptr, ptr %io_buffer, align 8
  %sub.ptr.lhs.cast = ptrtoint ptr %0 to i64
  %sub.ptr.rhs.cast = ptrtoint ptr %1 to i64
  %sub.ptr.sub = sub i64 %sub.ptr.lhs.cast, %sub.ptr.rhs.cast
  %conv = trunc i64 %sub.ptr.sub to i32
  %cur_io_buffer_offset = getelementptr inbounds nuw i8, ptr %opaque, i64 900
  store i32 %conv, ptr %cur_io_buffer_offset, align 4
  %data_end = getelementptr inbounds nuw i8, ptr %opaque, i64 880
  %2 = load ptr, ptr %data_end, align 8
  %sub.ptr.lhs.cast2 = ptrtoint ptr %2 to i64
  %sub.ptr.sub4 = sub i64 %sub.ptr.lhs.cast2, %sub.ptr.lhs.cast
  %conv5 = trunc i64 %sub.ptr.sub4 to i32
  %cur_io_buffer_len = getelementptr inbounds nuw i8, ptr %opaque, i64 904
  store i32 %conv5, ptr %cur_io_buffer_len, align 8
  %end_transfer_func = getelementptr inbounds nuw i8, ptr %opaque, i64 864
  %3 = load ptr, ptr %end_transfer_func, align 8
  br label %for.body.i

for.body.i:                                       ; preds = %for.inc.i, %entry
  %indvars.iv.i = phi i64 [ 0, %entry ], [ %indvars.iv.next.i, %for.inc.i ]
  %arrayidx.i = getelementptr [6 x ptr], ptr @transfer_end_table, i64 0, i64 %indvars.iv.i
  %4 = load ptr, ptr %arrayidx.i, align 8
  %cmp2.i = icmp eq ptr %4, %3
  br i1 %cmp2.i, label %if.else, label %for.inc.i

for.inc.i:                                        ; preds = %for.body.i
  %indvars.iv.next.i = add nuw nsw i64 %indvars.iv.i, 1
  %exitcond.not.i = icmp eq i64 %indvars.iv.next.i, 6
  br i1 %exitcond.not.i, label %if.then, label %for.body.i, !llvm.loop !23

if.then:                                          ; preds = %for.inc.i
  %5 = load ptr, ptr @stderr, align 8
  %call7 = tail call i32 (ptr, ptr, ...) @fprintf(ptr noundef %5, ptr noundef nonnull @.str.104, ptr noundef nonnull @__func__.ide_drive_pio_pre_save) #20
  br label %if.end

if.else:                                          ; preds = %for.body.i
  %conv8 = trunc i64 %indvars.iv.i to i8
  br label %if.end

if.end:                                           ; preds = %if.else, %if.then
  %conv8.sink = phi i8 [ %conv8, %if.else ], [ 2, %if.then ]
  %end_transfer_fn_idx9 = getelementptr inbounds nuw i8, ptr %opaque, i64 908
  store i8 %conv8.sink, ptr %end_transfer_fn_idx9, align 4
  ret i32 0
}